target datalayout = "e-m:e-p270:32:32-p271:32:32-p272:64:64-i64:64-i128:128-f80:128-n8:16:32:64-S128"
target triple = "x86_64-pc-linux-gnu"

%struct.BEValue = type { i8, i32, ptr, ptr, ptr }
%struct.GenContext_ = type { i8, ptr, ptr, ptr, ptr, ptr, ptr, ptr, ptr, ptr, ptr, ptr, ptr, ptr, ptr, ptr, ptr, ptr, ptr, ptr, ptr, ptr, ptr, ptr, ptr, ptr, ptr, ptr, ptr, ptr, ptr, ptr, ptr, %struct.anon.85, i32, i32, %struct.DebugContext, ptr, ptr, ptr, %struct.BEValue, i8, %union.SourceSpan, ptr, ptr, ptr, ptr }
%struct.anon.85 = type { ptr, ptr, ptr }
%struct.DebugContext = type { i16, ptr, ptr, %struct.DebugFile_, ptr, ptr, ptr, ptr }
%struct.DebugFile_ = type { i16, ptr }
%union.SourceSpan = type { i64 }

@type_bool = external global ptr, align 8
@.str.56 = private unnamed_addr constant [14 x i8] c"catch_landing\00", align 1
@.str.57 = private unnamed_addr constant [14 x i8] c"phi_try_catch\00", align 1
@.str.58 = private unnamed_addr constant [4 x i8] c"val\00", align 1

; Function Attrs: nounwind uwtable
define dso_local void @llvm_emit_try_assign_try_catch(ptr noundef %0, i1 noundef zeroext %1, ptr noundef %2, ptr noundef %3, ptr noundef %4, ptr noundef %5) #0 {
  %7 = alloca ptr, align 8
  %8 = alloca i8, align 1
  %9 = alloca ptr, align 8
  %10 = alloca ptr, align 8
  %11 = alloca ptr, align 8
  %12 = alloca ptr, align 8
  %13 = alloca ptr, align 8
  %14 = alloca ptr, align 8
  %15 = alloca ptr, align 8
  %16 = alloca ptr, align 8
  %17 = alloca ptr, align 8
  %18 = alloca ptr, align 8
  %19 = alloca ptr, align 8
  %20 = alloca ptr, align 8
  %21 = alloca [2 x ptr], align 16
  %22 = alloca [2 x ptr], align 16
  store ptr %0, ptr %7, align 8
  %23 = zext i1 %1 to i8
  store i8 %23, ptr %8, align 1
  store ptr %2, ptr %9, align 8
  store ptr %3, ptr %10, align 8
  store ptr %4, ptr %11, align 8
  store ptr %5, ptr %12, align 8
  %24 = load ptr, ptr %7, align 8
  %25 = call ptr @llvm_basic_block_new(ptr noundef %24, ptr noundef @.str.56)
  store ptr %25, ptr %13, align 8
  %26 = load ptr, ptr %7, align 8
  %27 = call ptr @llvm_basic_block_new(ptr noundef %26, ptr noundef @.str.57)
  store ptr %27, ptr %14, align 8
  %28 = load ptr, ptr %7, align 8
  %29 = getelementptr inbounds %struct.GenContext_, ptr %28, i32 0, i32 11
  %30 = load ptr, ptr %29, align 8
  store ptr %30, ptr %15, align 8
  %31 = load ptr, ptr %7, align 8
  %32 = getelementptr inbounds %struct.GenContext_, ptr %31, i32 0, i32 19
  %33 = load ptr, ptr %32, align 8
  store ptr %33, ptr %16, align 8
  %34 = load ptr, ptr %11, align 8
  %35 = icmp ne ptr %34, null
  br i1 %35, label %36, label %40

36:                                               ; preds = %6
  %37 = load ptr, ptr %11, align 8
  %38 = getelementptr inbounds %struct.BEValue, ptr %37, i32 0, i32 3
  %39 = load ptr, ptr %38, align 8
  br label %41

40:                                               ; preds = %6
  br label %41

41:                                               ; preds = %40, %36
  %42 = phi ptr [ %39, %36 ], [ null, %40 ]
  %43 = load ptr, ptr %7, align 8
  %44 = getelementptr inbounds %struct.GenContext_, ptr %43, i32 0, i32 19
  store ptr %42, ptr %44, align 8
  %45 = load ptr, ptr %13, align 8
  %46 = load ptr, ptr %7, align 8
  %47 = getelementptr inbounds %struct.GenContext_, ptr %46, i32 0, i32 11
  store ptr %45, ptr %47, align 8
  %48 = load ptr, ptr %7, align 8
  %49 = load ptr, ptr %9, align 8
  %50 = load ptr, ptr %12, align 8
  call void @llvm_emit_expr(ptr noundef %48, ptr noundef %49, ptr noundef %50)
  %51 = load ptr, ptr %7, align 8
  %52 = load ptr, ptr %9, align 8
  call void @llvm_value_fold_optional(ptr noundef %51, ptr noundef %52)
  %53 = load ptr, ptr %10, align 8
  %54 = icmp ne ptr %53, null
  br i1 %54, label %55, label %60

55:                                               ; preds = %41
  %56 = load ptr, ptr %7, align 8
  %57 = load ptr, ptr %10, align 8
  %58 = load ptr, ptr %9, align 8
  %59 = call ptr @llvm_store(ptr noundef %56, ptr noundef %57, ptr noundef %58)
  br label %60

60:                                               ; preds = %55, %41
  %61 = load ptr, ptr %15, align 8
  %62 = load ptr, ptr %7, align 8
  %63 = getelementptr inbounds %struct.GenContext_, ptr %62, i32 0, i32 11
  store ptr %61, ptr %63, align 8
  %64 = load ptr, ptr %16, align 8
  %65 = load ptr, ptr %7, align 8
  %66 = getelementptr inbounds %struct.GenContext_, ptr %65, i32 0, i32 19
  store ptr %64, ptr %66, align 8
  %67 = load ptr, ptr %7, align 8
  %68 = getelementptr inbounds %struct.GenContext_, ptr %67, i32 0, i32 10
  %69 = load ptr, ptr %68, align 8
  store ptr %69, ptr %17, align 8
  %70 = load ptr, ptr %7, align 8
  %71 = load ptr, ptr %14, align 8
  call void @llvm_emit_br(ptr noundef %70, ptr noundef %71)
  %72 = load ptr, ptr %7, align 8
  %73 = load ptr, ptr %13, align 8
  call void @llvm_emit_block(ptr noundef %72, ptr noundef %73)
  %74 = load ptr, ptr %7, align 8
  %75 = load ptr, ptr %14, align 8
  call void @llvm_emit_br(ptr noundef %74, ptr noundef %75)
  %76 = load ptr, ptr %7, align 8
  %77 = load ptr, ptr %14, align 8
  call void @llvm_emit_block(ptr noundef %76, ptr noundef %77)
  %78 = load ptr, ptr %7, align 8
  %79 = getelementptr inbounds %struct.GenContext_, ptr %78, i32 0, i32 8
  %80 = load ptr, ptr %79, align 8
  %81 = load ptr, ptr %7, align 8
  %82 = getelementptr inbounds %struct.GenContext_, ptr %81, i32 0, i32 20
  %83 = load ptr, ptr %82, align 8
  %84 = call ptr @LLVMBuildPhi(ptr noundef %80, ptr noundef %83, ptr noundef @.str.58)
  store ptr %84, ptr %18, align 8
  %85 = load ptr, ptr %7, align 8
  %86 = getelementptr inbounds %struct.GenContext_, ptr %85, i32 0, i32 20
  %87 = load ptr, ptr %86, align 8
  %88 = load i8, ptr %8, align 1
  %89 = trunc i8 %88 to i1
  %90 = select i1 %89, i32 1, i32 0
  %91 = sext i32 %90 to i64
  %92 = call ptr @LLVMConstInt(ptr noundef %87, i64 noundef %91, i32 noundef 0)
  store ptr %92, ptr %19, align 8
  %93 = load ptr, ptr %7, align 8
  %94 = getelementptr inbounds %struct.GenContext_, ptr %93, i32 0, i32 20
  %95 = load ptr, ptr %94, align 8
  %96 = load i8, ptr %8, align 1
  %97 = trunc i8 %96 to i1
  %98 = select i1 %97, i32 0, i32 1
  %99 = sext i32 %98 to i64
  %100 = call ptr @LLVMConstInt(ptr noundef %95, i64 noundef %99, i32 noundef 0)
  store ptr %100, ptr %20, align 8
  %101 = getelementptr inbounds [2 x ptr], ptr %21, i64 0, i64 0
  %102 = load ptr, ptr %19, align 8
  store ptr %102, ptr %101, align 8
  %103 = getelementptr inbounds ptr, ptr %101, i64 1
  %104 = load ptr, ptr %20, align 8
  store ptr %104, ptr %103, align 8
  %105 = getelementptr inbounds [2 x ptr], ptr %22, i64 0, i64 0
  %106 = load ptr, ptr %17, align 8
  store ptr %106, ptr %105, align 8
  %107 = getelementptr inbounds ptr, ptr %105, i64 1
  %108 = load ptr, ptr %13, align 8
  store ptr %108, ptr %107, align 8
  %109 = load ptr, ptr %18, align 8
  %110 = getelementptr inbounds [2 x ptr], ptr %21, i64 0, i64 0
  %111 = getelementptr inbounds [2 x ptr], ptr %22, i64 0, i64 0
  call void @LLVMAddIncoming(ptr noundef %109, ptr noundef %110, ptr noundef %111, i32 noundef 2)
  %112 = load ptr, ptr %9, align 8
  %113 = load ptr, ptr %18, align 8
  %114 = load ptr, ptr @type_bool, align 8
  call void @llvm_value_set(ptr noundef %112, ptr noundef %113, ptr noundef %114)
  ret void
}