; Function Attrs: nounwind uwtable
define dso_local void @llvm_emit_try_assign_try_catch(ptr noundef %0, i1 noundef zeroext %1, ptr noundef %2, ptr noundef %3, ptr noundef readonly %4, ptr noundef %5) local_unnamed_addr #0 {
  %7 = alloca [2 x ptr], align 16
  %8 = alloca [2 x ptr], align 16
  %9 = tail call ptr @llvm_basic_block_new(ptr noundef %0, ptr noundef nonnull @.str.56) #10
  %10 = tail call ptr @llvm_basic_block_new(ptr noundef %0, ptr noundef nonnull @.str.57) #10
  %11 = getelementptr inbounds i8, ptr %0, i64 88
  %12 = load ptr, ptr %11, align 8
  %13 = getelementptr inbounds i8, ptr %0, i64 152
  %14 = load ptr, ptr %13, align 8
  %.not = icmp eq ptr %4, null
  br i1 %.not, label %18, label %15

15:                                               ; preds = %6
  %16 = getelementptr inbounds i8, ptr %4, i64 16
  %17 = load ptr, ptr %16, align 8
  br label %18

18:                                               ; preds = %6, %15
  %19 = phi ptr [ %17, %15 ], [ null, %6 ]
  store ptr %19, ptr %13, align 8
  store ptr %9, ptr %11, align 8
  tail call void @llvm_emit_expr(ptr noundef nonnull %0, ptr noundef %2, ptr noundef %5)
  tail call void @llvm_value_fold_optional(ptr noundef nonnull %0, ptr noundef %2) #10
  %.not44 = icmp eq ptr %3, null
  br i1 %.not44, label %22, label %20

20:                                               ; preds = %18
  %21 = tail call ptr @llvm_store(ptr noundef nonnull %0, ptr noundef nonnull %3, ptr noundef %2) #10
  br label %22

22:                                               ; preds = %20, %18
  store ptr %12, ptr %11, align 8
  store ptr %14, ptr %13, align 8
  %23 = getelementptr inbounds i8, ptr %0, i64 80
  %24 = load ptr, ptr %23, align 8
  tail call void @llvm_emit_br(ptr noundef nonnull %0, ptr noundef %10) #10
  tail call void @llvm_emit_block(ptr noundef nonnull %0, ptr noundef %9) #10
  tail call void @llvm_emit_br(ptr noundef nonnull %0, ptr noundef %10) #10
  tail call void @llvm_emit_block(ptr noundef nonnull %0, ptr noundef %10) #10
  %25 = getelementptr inbounds i8, ptr %0, i64 64
  %26 = load ptr, ptr %25, align 8
  %27 = getelementptr inbounds i8, ptr %0, i64 160
  %28 = load ptr, ptr %27, align 8
  %29 = tail call ptr @LLVMBuildPhi(ptr noundef %26, ptr noundef %28, ptr noundef nonnull @.str.58) #10
  %30 = load ptr, ptr %27, align 8
  %31 = zext i1 %1 to i64
  %32 = tail call ptr @LLVMConstInt(ptr noundef %30, i64 noundef %31, i32 noundef 0) #10
  %33 = load ptr, ptr %27, align 8
  %not. = xor i1 %1, true
  %34 = zext i1 %not. to i64
  %35 = tail call ptr @LLVMConstInt(ptr noundef %33, i64 noundef %34, i32 noundef 0) #10
  store ptr %32, ptr %7, align 16
  %36 = getelementptr inbounds i8, ptr %7, i64 8
  store ptr %35, ptr %36, align 8
  store ptr %24, ptr %8, align 16
  %37 = getelementptr inbounds i8, ptr %8, i64 8
  store ptr %9, ptr %37, align 8
  call void @LLVMAddIncoming(ptr noundef %29, ptr noundef nonnull %7, ptr noundef nonnull %8, i32 noundef 2) #10
  %38 = load ptr, ptr @type_bool, align 8
  call void @llvm_value_set(ptr noundef %2, ptr noundef %29, ptr noundef %38) #10
  ret void
}